target datalayout = "e-m:e-p270:32:32-p271:32:32-p272:64:64-i64:64-i128:128-f80:128-n8:16:32:64-S128"
target triple = "x86_64-unknown-linux-gnu"

%class.btVector3 = type { [4 x float] }
%class.btConvexInternalShape = type { %class.btConvexShape, %class.btVector3, %class.btVector3, float, float }
%class.btConvexShape = type { %class.btCollisionShape }
%class.btCollisionShape = type { ptr, i32, ptr, i32, i32 }

; Function Attrs: mustprogress nounwind uwtable
define linkonce_odr dso_local noundef ptr @_ZN9btVector3cvPfEv(ptr noundef nonnull align 4 dereferenceable(16) %this) #1 comdat align 2 {
entry:
  %this.addr = alloca ptr, align 8
  store ptr %this, ptr %this.addr, align 8
  %this1 = load ptr, ptr %this.addr, align 8
  %m_floats = getelementptr inbounds %class.btVector3, ptr %this1, i32 0, i32 0
  %arrayidx = getelementptr inbounds [4 x float], ptr %m_floats, i64 0, i64 0
  ret ptr %arrayidx
}

; Function Attrs: mustprogress nounwind uwtable
define linkonce_odr dso_local noundef float @_Z6btSqrtf(float noundef %y) #1 comdat {
entry:
  %y.addr = alloca float, align 4
  store float %y, ptr %y.addr, align 4
  %0 = load float, ptr %y.addr, align 4
  %call = call float @sqrtf(float noundef %0) #9
  ret float %call
}

; Function Attrs: mustprogress nounwind uwtable
define linkonce_odr dso_local void @_ZN9btVector3C2Ev(ptr noundef nonnull align 4 dereferenceable(16) %this) unnamed_addr #1 comdat align 2 {
entry:
  %this.addr = alloca ptr, align 8
  store ptr %this, ptr %this.addr, align 8
  ret void
}

; Function Attrs: mustprogress nounwind uwtable
define linkonce_odr dso_local noundef ptr @_ZNK9btVector3cvPKfEv(ptr noundef nonnull align 4 dereferenceable(16) %this) #1 comdat align 2 {
entry:
  %this.addr = alloca ptr, align 8
  store ptr %this, ptr %this.addr, align 8
  %this1 = load ptr, ptr %this.addr, align 8
  %m_floats = getelementptr inbounds %class.btVector3, ptr %this1, i32 0, i32 0
  %arrayidx = getelementptr inbounds [4 x float], ptr %m_floats, i64 0, i64 0
  ret ptr %arrayidx
}

; Function Attrs: mustprogress uwtable
define linkonce_odr dso_local { <2 x float>, <2 x float> } @_Z21CylinderLocalSupportYRK9btVector3S1_(ptr noundef nonnull align 4 dereferenceable(16) %halfExtents, ptr noundef nonnull align 4 dereferenceable(16) %v) #4 comdat {
entry:
  %retval = alloca %class.btVector3, align 4
  %halfExtents.addr = alloca ptr, align 8
  %v.addr = alloca ptr, align 8
  %cylinderUpAxis = alloca i32, align 4
  %XX = alloca i32, align 4
  %YY = alloca i32, align 4
  %ZZ = alloca i32, align 4
  %radius = alloca float, align 4
  %halfHeight = alloca float, align 4
  %d = alloca float, align 4
  %s = alloca float, align 4
  store ptr %halfExtents, ptr %halfExtents.addr, align 8
  store ptr %v, ptr %v.addr, align 8
  store i32 1, ptr %cylinderUpAxis, align 4
  store i32 0, ptr %XX, align 4
  store i32 1, ptr %YY, align 4
  store i32 2, ptr %ZZ, align 4
  %0 = load ptr, ptr %halfExtents.addr, align 8
  %call = call noundef ptr @_ZNK9btVector3cvPKfEv(ptr noundef nonnull align 4 dereferenceable(16) %0)
  %arrayidx = getelementptr inbounds float, ptr %call, i64 0
  %1 = load float, ptr %arrayidx, align 4
  store float %1, ptr %radius, align 4
  %2 = load ptr, ptr %halfExtents.addr, align 8
  %call1 = call noundef ptr @_ZNK9btVector3cvPKfEv(ptr noundef nonnull align 4 dereferenceable(16) %2)
  %arrayidx2 = getelementptr inbounds float, ptr %call1, i64 1
  %3 = load float, ptr %arrayidx2, align 4
  store float %3, ptr %halfHeight, align 4
  call void @_ZN9btVector3C2Ev(ptr noundef nonnull align 4 dereferenceable(16) %retval)
  %4 = load ptr, ptr %v.addr, align 8
  %call3 = call noundef ptr @_ZNK9btVector3cvPKfEv(ptr noundef nonnull align 4 dereferenceable(16) %4)
  %arrayidx4 = getelementptr inbounds float, ptr %call3, i64 0
  %5 = load float, ptr %arrayidx4, align 4
  %6 = load ptr, ptr %v.addr, align 8
  %call5 = call noundef ptr @_ZNK9btVector3cvPKfEv(ptr noundef nonnull align 4 dereferenceable(16) %6)
  %arrayidx6 = getelementptr inbounds float, ptr %call5, i64 0
  %7 = load float, ptr %arrayidx6, align 4
  %8 = load ptr, ptr %v.addr, align 8
  %call7 = call noundef ptr @_ZNK9btVector3cvPKfEv(ptr noundef nonnull align 4 dereferenceable(16) %8)
  %arrayidx8 = getelementptr inbounds float, ptr %call7, i64 2
  %9 = load float, ptr %arrayidx8, align 4
  %10 = load ptr, ptr %v.addr, align 8
  %call9 = call noundef ptr @_ZNK9btVector3cvPKfEv(ptr noundef nonnull align 4 dereferenceable(16) %10)
  %arrayidx10 = getelementptr inbounds float, ptr %call9, i64 2
  %11 = load float, ptr %arrayidx10, align 4
  %mul11 = fmul float %9, %11
  %12 = call float @llvm.fmuladd.f32(float %5, float %7, float %mul11)
  %call12 = call noundef float @_Z6btSqrtf(float noundef %12)
  store float %call12, ptr %s, align 4
  %13 = load float, ptr %s, align 4
  %cmp = fcmp une float %13, 0.000000e+00
  br i1 %cmp, label %if.then, label %if.else

if.then:                                          ; preds = %entry
  %14 = load float, ptr %radius, align 4
  %15 = load float, ptr %s, align 4
  %div = fdiv float %14, %15
  store float %div, ptr %d, align 4
  %16 = load ptr, ptr %v.addr, align 8
  %call13 = call noundef ptr @_ZNK9btVector3cvPKfEv(ptr noundef nonnull align 4 dereferenceable(16) %16)
  %arrayidx14 = getelementptr inbounds float, ptr %call13, i64 0
  %17 = load float, ptr %arrayidx14, align 4
  %18 = load float, ptr %d, align 4
  %mul = fmul float %17, %18
  %call15 = call noundef ptr @_ZN9btVector3cvPfEv(ptr noundef nonnull align 4 dereferenceable(16) %retval)
  %arrayidx16 = getelementptr inbounds float, ptr %call15, i64 0
  store float %mul, ptr %arrayidx16, align 4
  %19 = load ptr, ptr %v.addr, align 8
  %call17 = call noundef ptr @_ZNK9btVector3cvPKfEv(ptr noundef nonnull align 4 dereferenceable(16) %19)
  %arrayidx18 = getelementptr inbounds float, ptr %call17, i64 1
  %20 = load float, ptr %arrayidx18, align 4
  %conv = fpext float %20 to double
  %cmp19 = fcmp olt double %conv, 0.000000e+00
  br i1 %cmp19, label %cond.true, label %cond.false

cond.true:                                        ; preds = %if.then
  %21 = load float, ptr %halfHeight, align 4
  %fneg = fneg float %21
  br label %cond.end

cond.false:                                       ; preds = %if.then
  %22 = load float, ptr %halfHeight, align 4
  br label %cond.end

cond.end:                                         ; preds = %cond.false, %cond.true
  %cond = phi float [ %fneg, %cond.true ], [ %22, %cond.false ]
  %call20 = call noundef ptr @_ZN9btVector3cvPfEv(ptr noundef nonnull align 4 dereferenceable(16) %retval)
  %arrayidx21 = getelementptr inbounds float, ptr %call20, i64 1
  store float %cond, ptr %arrayidx21, align 4
  %23 = load ptr, ptr %v.addr, align 8
  %call22 = call noundef ptr @_ZNK9btVector3cvPKfEv(ptr noundef nonnull align 4 dereferenceable(16) %23)
  %arrayidx23 = getelementptr inbounds float, ptr %call22, i64 2
  %24 = load float, ptr %arrayidx23, align 4
  %25 = load float, ptr %d, align 4
  %mul24 = fmul float %24, %25
  %call25 = call noundef ptr @_ZN9btVector3cvPfEv(ptr noundef nonnull align 4 dereferenceable(16) %retval)
  %arrayidx26 = getelementptr inbounds float, ptr %call25, i64 2
  store float %mul24, ptr %arrayidx26, align 4
  br label %return

if.else:                                          ; preds = %entry
  %26 = load float, ptr %radius, align 4
  %call27 = call noundef ptr @_ZN9btVector3cvPfEv(ptr noundef nonnull align 4 dereferenceable(16) %retval)
  %arrayidx28 = getelementptr inbounds float, ptr %call27, i64 0
  store float %26, ptr %arrayidx28, align 4
  %27 = load ptr, ptr %v.addr, align 8
  %call29 = call noundef ptr @_ZNK9btVector3cvPKfEv(ptr noundef nonnull align 4 dereferenceable(16) %27)
  %arrayidx30 = getelementptr inbounds float, ptr %call29, i64 1
  %28 = load float, ptr %arrayidx30, align 4
  %conv31 = fpext float %28 to double
  %cmp32 = fcmp olt double %conv31, 0.000000e+00
  br i1 %cmp32, label %cond.true33, label %cond.false35

cond.true33:                                      ; preds = %if.else
  %29 = load float, ptr %halfHeight, align 4
  %fneg34 = fneg float %29
  br label %cond.end36

cond.false35:                                     ; preds = %if.else
  %30 = load float, ptr %halfHeight, align 4
  br label %cond.end36

cond.end36:                                       ; preds = %cond.false35, %cond.true33
  %cond37 = phi float [ %fneg34, %cond.true33 ], [ %30, %cond.false35 ]
  %call38 = call noundef ptr @_ZN9btVector3cvPfEv(ptr noundef nonnull align 4 dereferenceable(16) %retval)
  %arrayidx39 = getelementptr inbounds float, ptr %call38, i64 1
  store float %cond37, ptr %arrayidx39, align 4
  %call40 = call noundef ptr @_ZN9btVector3cvPfEv(ptr noundef nonnull align 4 dereferenceable(16) %retval)
  %arrayidx41 = getelementptr inbounds float, ptr %call40, i64 2
  store float 0.000000e+00, ptr %arrayidx41, align 4
  br label %return

return:                                           ; preds = %cond.end36, %cond.end
  %coerce.dive = getelementptr inbounds %class.btVector3, ptr %retval, i32 0, i32 0
  %31 = load { <2 x float>, <2 x float> }, ptr %coerce.dive, align 4
  ret { <2 x float>, <2 x float> } %31
}

; Function Attrs: mustprogress nounwind uwtable
define linkonce_odr dso_local noundef nonnull align 4 dereferenceable(16) ptr @_ZNK15btCylinderShape27getHalfExtentsWithoutMarginEv(ptr noundef nonnull align 8 dereferenceable(76) %this) #1 comdat align 2 {
entry:
  %this.addr = alloca ptr, align 8
  store ptr %this, ptr %this.addr, align 8
  %this1 = load ptr, ptr %this.addr, align 8
  %m_implicitShapeDimensions = getelementptr inbounds %class.btConvexInternalShape, ptr %this1, i32 0, i32 2
  ret ptr %m_implicitShapeDimensions
}

; Function Attrs: mustprogress uwtable
define dso_local void @_ZNK15btCylinderShape49batchedUnitVectorGetSupportingVertexWithoutMarginEPK9btVector3PS0_i(ptr noundef nonnull align 8 dereferenceable(76) %this, ptr noundef %vectors, ptr noundef %supportVerticesOut, i32 noundef %numVectors) unnamed_addr #2 align 2 {
entry:
  %this.addr = alloca ptr, align 8
  %vectors.addr = alloca ptr, align 8
  %supportVerticesOut.addr = alloca ptr, align 8
  %numVectors.addr = alloca i32, align 4
  %i = alloca i32, align 4
  %ref.tmp = alloca %class.btVector3, align 4
  store ptr %this, ptr %this.addr, align 8
  store ptr %vectors, ptr %vectors.addr, align 8
  store ptr %supportVerticesOut, ptr %supportVerticesOut.addr, align 8
  store i32 %numVectors, ptr %numVectors.addr, align 4
  %this1 = load ptr, ptr %this.addr, align 8
  store i32 0, ptr %i, align 4
  br label %for.cond

for.cond:                                         ; preds = %for.inc, %entry
  %0 = load i32, ptr %i, align 4
  %1 = load i32, ptr %numVectors.addr, align 4
  %cmp = icmp slt i32 %0, %1
  br i1 %cmp, label %for.body, label %for.end

for.body:                                         ; preds = %for.cond
  %call = call noundef nonnull align 4 dereferenceable(16) ptr @_ZNK15btCylinderShape27getHalfExtentsWithoutMarginEv(ptr noundef nonnull align 8 dereferenceable(76) %this1)
  %2 = load ptr, ptr %vectors.addr, align 8
  %3 = load i32, ptr %i, align 4
  %idxprom = sext i32 %3 to i64
  %arrayidx = getelementptr inbounds %class.btVector3, ptr %2, i64 %idxprom
  %call2 = call { <2 x float>, <2 x float> } @_Z21CylinderLocalSupportYRK9btVector3S1_(ptr noundef nonnull align 4 dereferenceable(16) %call, ptr noundef nonnull align 4 dereferenceable(16) %arrayidx)
  %coerce.dive = getelementptr inbounds %class.btVector3, ptr %ref.tmp, i32 0, i32 0
  %4 = getelementptr inbounds { <2 x float>, <2 x float> }, ptr %coerce.dive, i32 0, i32 0
  %5 = extractvalue { <2 x float>, <2 x float> } %call2, 0
  store <2 x float> %5, ptr %4, align 4
  %6 = getelementptr inbounds { <2 x float>, <2 x float> }, ptr %coerce.dive, i32 0, i32 1
  %7 = extractvalue { <2 x float>, <2 x float> } %call2, 1
  store <2 x float> %7, ptr %6, align 4
  %8 = load ptr, ptr %supportVerticesOut.addr, align 8
  %9 = load i32, ptr %i, align 4
  %idxprom3 = sext i32 %9 to i64
  %arrayidx4 = getelementptr inbounds %class.btVector3, ptr %8, i64 %idxprom3
  call void @llvm.memcpy.p0.p0.i64(ptr align 4 %arrayidx4, ptr align 4 %ref.tmp, i64 16, i1 false)
  br label %for.inc

for.inc:                                          ; preds = %for.body
  %10 = load i32, ptr %i, align 4
  %inc = add nsw i32 %10, 1
  store i32 %inc, ptr %i, align 4
  br label %for.cond, !llvm.loop !5

for.end:                                          ; preds = %for.cond
  ret void
}